(dp0
(F-1.0873889561562244
F-1.7060154070937057
F0.018030867634631798
tp1
(F-1.0873889561562244
F-1.7060154070937057
F0.018030867634631798
tp2
s(F3.136474866769721
F-1.2824077149821802
F0.0009672504316796671
tp3
(F3.136474866769721
F-1.2824077149821802
F0.0009672504316796671
tp4
s(F-1.0819347222570506
F-0.23161105521523412
F-0.2544626870647185
tp5
(F-1.0819347222570506
F-0.23161105521523412
F-0.2544626870647185
tp6
s(F0.1838439615783079
F-0.725291738333719
F0.9356974240977025
tp7
(F0.1838439615783079
F-0.725291738333719
F0.9356974240977025
tp8
s(F-1.0814372006398807
F-0.13229448948535882
F-0.2544626870647185
tp9
(F-1.0814372006398807
F-0.13229448948535882
F-0.2544626870647185
tp10
s(F-3.2002853054146962
F-1.0473308416804046
F0.001310495913300569
tp11
(F-3.2002853054146962
F-1.0473308416804046
F0.001310495913300569
tp12
s(F0.23077625384481482
F-1.5624235520735463
F0.9528079704181917
tp13
(F0.23077625384481482
F-1.5624235520735463
F0.9528079704181917
tp14
s(F0.17720581076209252
F-0.23164516202784213
F0.9356974240977025
tp15
(F0.17720581076209252
F-0.23164516202784213
F0.9356974240977025
tp16
s(F-3.2002853054146962
F-1.214249754810544
F-1.2495721034705385
tp17
(F-3.2002853054146962
F-1.214249754810544
F-1.2495721034705385
tp18
s(F-0.9277953016647402
F-0.1554666037564077
F-0.22211715838412716
tp19
(F-0.9277953016647402
F-0.1554666037564077
F-0.22211715838412716
tp20
s(F3.136474866769721
F-0.2325935758964347
F-1.2748996027414203
tp21
(F3.136474866769721
F-0.2325935758964347
F-1.2748996027414203
tp22
s(F-3.2002853054146962
F-1.2157625924047228
F-0.026358613028388378
tp23
(F-3.2002853054146962
F-1.2157625924047228
F-0.026358613028388378
tp24
s(F-1.0834178701172827
F-0.24921267320169488
F-0.2544626870647185
tp25
(F-1.0834178701172827
F-0.24921267320169488
F-0.2544626870647185
tp26
s(F-1.0823632698946781
F-0.13235889581078586
F-0.2503534149323527
tp27
(F-1.0823632698946781
F-0.13235889581078586
F-0.2503534149323527
tp28
s(F0.13758967975867709
F-0.23164516202784213
F0.9356974240977025
tp29
(F0.13758967975867709
F-0.23164516202784213
F0.9356974240977025
tp30
s(F-1.087438517194615
F-1.6583851844242234
F-0.20799577214437023
tp31
(F-1.087438517194615
F-1.6583851844242234
F-0.20799577214437023
tp32
s(F-3.251496397516121
F-1.0473308416804046
F-1.2495721034705385
tp33
(F-3.251496397516121
F-1.0473308416804046
F-1.2495721034705385
tp34
s(F-0.00030486684381081375
F-0.23164516202784213
F0.018036887469870054
tp35
(F-0.00030486684381081375
F-0.23164516202784213
F0.018036887469870054
tp36
s(F0.03669382098200891
F-1.2323270388425502
F-1.2683992535429742
tp37
(F0.03669382098200891
F-1.2323270388425502
F-1.2683992535429742
tp38
s(F-0.9211571508485248
F0.4674644876234805
F0.017477823623755235
tp39
(F-0.9211571508485248
F0.4674644876234805
F0.017477823623755235
tp40
s(F-0.9211571508485248
F-0.1734080019360793
F0.003909481394874875
tp41
(F-0.9211571508485248
F-0.1734080019360793
F0.003909481394874875
tp42
s(F-3.041751699799911
F-0.24584686262341743
F0.954524574170273
tp43
(F-3.041751699799911
F-0.24584686262341743
F0.954524574170273
tp44
s(F-1.0863117940206304
F0.4665160737548879
F-0.02339785074519268
tp45
(F-1.0863117940206304
F0.4665160737548879
F-0.02339785074519268
tp46
s(F-1.122201586206943
F-0.2119710065559593
F-1.2414457684063263
tp47
(F-1.122201586206943
F-0.2119710065559593
F-1.2414457684063263
tp48
s(F-1.0302252461971564
F-0.13229448948535882
F-1.0194663390795695
tp49
(F-1.0302252461971564
F-0.13229448948535882
F-1.0194663390795695
tp50
s(F3.0320493727335878
F0.4665160737548879
F-0.02345082084540783
tp51
(F3.0320493727335878
F0.4665160737548879
F-0.02345082084540783
tp52
s(F-3.1822725338829407
F-1.0984243051065752
F-0.02983937772477252
tp53
(F-3.1822725338829407
F-1.0984243051065752
F-0.02983937772477252
tp54
s(F2.7314038511194836
F-1.0984243051065752
F-1.2495721034705385
tp55
(F2.7314038511194836
F-1.0984243051065752
F-1.2495721034705385
tp56
s(F-0.8793169152076598
F-1.6747380358398758
F-0.0352941424196333
tp57
(F-0.8793169152076598
F-1.6747380358398758
F-0.0352941424196333
tp58
s(F-0.8793169152076598
F-1.6771236287495643
F-0.0352941424196333
tp59
(F-0.8793169152076598
F-1.6771236287495643
F-0.0352941424196333
tp60
s(F-0.9211571508485248
F-0.23164516202784213
F-1.2466714299536166
tp61
(F-0.9211571508485248
F-0.23164516202784213
F-1.2466714299536166
tp62
s(F3.136474866769721
F-0.23162956493455464
F-0.02401700335758128
tp63
(F3.136474866769721
F-0.23162956493455464
F-0.02401700335758128
tp64
s(F-1.7651607226567756
F-0.22513208062341444
F-1.241223984679697
tp65
(F-1.7651607226567756
F-0.22513208062341444
F-1.241223984679697
tp66
s(F-3.1615014104905717
F-1.063104079415581
F-1.2493503197439093
tp67
(F-3.1615014104905717
F-1.063104079415581
F-1.2493503197439093
tp68
s(F2.0642103073107796
F3.725220117908467
F-3.9604003369503165
tp69
(F2.0642103073107796
F3.725220117908467
F-3.9604003369503165
tp70
s(F-1.0834178701172827
F-0.2277442442911357
F-1.241223984679697
tp71
(F-1.0834178701172827
F-0.2277442442911357
F-1.241223984679697
tp72
s(F0.21904604640295755
F-1.6771236287495643
F0.9238612211895356
tp73
(F0.21904604640295755
F-1.6771236287495643
F0.9238612211895356
tp74
s(F-0.9211571508485248
F-0.2331579996220211
F-0.023457939511466464
tp75
(F-0.9211571508485248
F-0.2331579996220211
F-0.023457939511466464
tp76
s(F-0.9211571508485248
F-0.23164516202784213
F-1.2022549021220108
tp77
(F-0.9211571508485248
F-0.23164516202784213
F-1.2022549021220108
tp78
s(F0.031008589011398913
F-1.0473308416804046
F-1.2516687799700217
tp79
(F0.031008589011398913
F-1.0473308416804046
F-1.2516687799700217
tp80
s(F-1.087438517194615
F-1.6771236287495643
F0.018030867634631798
tp81
(F-1.087438517194615
F-1.6771236287495643
F0.018030867634631798
tp82
s(F-3.2002853054146962
F-1.0473308416804046
F-1.2495721034705385
tp83
(F-3.2002853054146962
F-1.0473308416804046
F-1.2495721034705385
tp84
s(F-0.9226402987087572
F-0.22777835110374373
F0.017477823623755235
tp85
(F-0.9226402987087572
F-0.22777835110374373
F0.017477823623755235
tp86
s(F1.708436936023502
F1.3792985729116118
F-1.9209229259935423
tp87
(F1.708436936023502
F1.3792985729116118
F-1.9209229259935423
tp88
s(F-0.9211571508485248
F-0.23164516202784213
F-0.023457939511466464
tp89
(F-0.9211571508485248
F-0.23164516202784213
F-0.023457939511466464
tp90
s(F1.1106626687054533
F-1.0997166644326564
F1.8035249743631416
tp91
(F1.1106626687054533
F-1.0997166644326564
F1.8035249743631416
tp92
s(F0.4089079950903036
F2.895504497067785
F-2.1859201079956705
tp93
(F0.4089079950903036
F2.895504497067785
F-2.1859201079956705
tp94
s(F-3.2002853054146962
F-1.2157625924047228
F-1.2495721034705385
tp95
(F-3.2002853054146962
F-1.2157625924047228
F-1.2495721034705385
tp96
s(F-3.194591711442354
F-1.2108586099319911
F-1.266302577043491
tp97
(F-3.194591711442354
F-1.2108586099319911
F-1.266302577043491
tp98
s(F-2.87571599664566
F0.4665160737548879
F-0.023457939511466464
tp99
(F-2.87571599664566
F0.4665160737548879
F-0.023457939511466464
tp100
s(F-1.0813876396014903
F-0.1611862678295103
F-0.2544626870647185
tp101
(F-1.0813876396014903
F-0.1611862678295103
F-0.2544626870647185
tp102
s(F3.037695854679808
F0.4665160737548879
F-0.023457939511466464
tp103
(F3.037695854679808
F0.4665160737548879
F-0.023457939511466464
tp104
s(F-1.122201586206943
F-0.2119710065559593
F-1.2515259582700968
tp105
(F-1.122201586206943
F-0.2119710065559593
F-1.2515259582700968
tp106
s(F-1.0834178701172827
F-0.2277442442911357
F-0.2544626870647185
tp107
(F-1.0834178701172827
F-0.2277442442911357
F-0.2544626870647185
tp108
s(F0.06825569068855852
F-0.13229448948535882
F-1.2593712824255525
tp109
(F0.06825569068855852
F-0.13229448948535882
F-1.2593712824255525
tp110
s(F-0.9211571508485248
F-0.2326091729897222
F-0.023457939511466464
tp111
(F-0.9211571508485248
F-0.2326091729897222
F-0.023457939511466464
tp112
s(F0.03669382098200891
F-1.2108586099319911
F-1.2683992535429742
tp113
(F0.03669382098200891
F-1.2108586099319911
F-1.2683992535429742
tp114
s(F-3.2002853054146962
F-1.0473308416804046
F-0.26281080585555994
tp115
(F-3.2002853054146962
F-1.0473308416804046
F-0.26281080585555994
tp116
s(F-1.1129990703464303
F-1.2108586099319911
F-0.2634906581821402
tp117
(F-1.1129990703464303
F-1.2108586099319911
F-0.2634906581821402
tp118
s(F3.025965051046878
F0.351815997079566
F-0.052404688740122496
tp119
(F3.025965051046878
F0.351815997079566
F-0.052404688740122496
tp120
s(F0.03393446198217942
F-1.2134707735997123
F-1.2683992535429742
tp121
(F0.03393446198217942
F-1.2134707735997123
F-1.2683992535429742
tp122
s(F-0.9202310815937276
F-0.2315807557024151
F-0.027567211643832246
tp123
(F-0.9202310815937276
F-0.2315807557024151
F-0.027567211643832246
tp124
s(F-1.0813876396014903
F1.2370735687692371
F-1.093553298671666
tp125
(F-1.0813876396014903
F1.2370735687692371
F-1.093553298671666
tp126
s(F2.8774937766671034
F1.1825055978644752
F-1.093553298671666
tp127
(F2.8774937766671034
F1.1825055978644752
F-1.093553298671666
tp128
s(F-0.9211571508485248
F-0.23164516202784213
F0.017477823623755235
tp129
(F-0.9211571508485248
F-0.23164516202784213
F0.017477823623755235
tp130
s(F1.708436936023502
F1.4562741773287167
F-2.119582144874803
tp131
(F1.708436936023502
F1.4562741773287167
F-2.119582144874803
tp132
s(F-0.9211571508485248
F-0.1546695576107413
F-0.22211715838412716
tp133
(F-0.9211571508485248
F-0.1546695576107413
F-0.22211715838412716
tp134
s(F-0.9031438477356764
F-0.28273862545401274
F0.017477823623755235
tp135
(F-0.9031438477356764
F-0.28273862545401274
F0.017477823623755235
tp136
s(F3.142121348715942
F0.4665160737548879
F-0.02402412202363991
tp137
(F3.142121348715942
F0.4665160737548879
F-0.02402412202363991
tp138
s(F3.0773101740041664
F0.4665160737548879
F-0.31139708877586614
tp139
(F3.0773101740041664
F0.4665160737548879
F-0.31139708877586614
tp140
s(F-1.087438517194615
F-1.6771236287495643
F-0.0229048955005899
tp141
(F-1.087438517194615
F-1.6771236287495643
F-0.0229048955005899
tp142
s(F-3.1822725338829407
F-1.0984243051065752
F-1.2495721034705385
tp143
(F-3.1822725338829407
F-1.0984243051065752
F-1.2495721034705385
tp144
s(F-0.9211571508485248
F1.243590278988006
F-1.0612077699910747
tp145
(F-0.9211571508485248
F1.243590278988006
F-1.0612077699910747
tp146
s(F-0.8732660376145349
F1.2370735687692371
F-1.146878308725931
tp147
(F-0.8732660376145349
F1.2370735687692371
F-1.146878308725931
tp148
s(F-3.251496397516121
F0.002483297405341145
F-1.2745563572597995
tp149
(F-3.251496397516121
F0.002483297405341145
F-1.2745563572597995
tp150
s(F3.136474866769721
F0.4665160737548879
F-0.02401700335758128
tp151
(F3.136474866769721
F0.4665160737548879
F-0.02401700335758128
tp152
s(F-0.9211571508485248
F-0.23403075493752934
F-0.023457939511466464
tp153
(F-0.9211571508485248
F-0.23403075493752934
F-0.023457939511466464
tp154
s(F3.136474866769721
F-0.2325935758964347
F-0.013936813493810707
tp155
(F3.136474866769721
F-0.2325935758964347
F-0.013936813493810707
tp156
s(F-1.8820197318744984
F2.591657909947001
F-0.45473656641079785
tp157
(F-1.8820197318744984
F2.591657909947001
F-0.45473656641079785
tp158
s(I8
I6
I4
tp159
(I8
I6
I4
tp160
s(F3.1353105636732983
F-1.6771236287495643
F0.017411715022243198
tp161
(F3.1353105636732983
F-1.6771236287495643
F0.017411715022243198
tp162
s(F0.17918648023949463
F-0.13619540722206525
F0.9356974240977025
tp163
(F0.17918648023949463
F-0.13619540722206525
F0.9356974240977025
tp164
s(F3.136474866769721
F-0.2325935758964347
F-0.02401700335758128
tp165
(F3.136474866769721
F-0.2325935758964347
F-0.02401700335758128
tp166
s.